; Function Attrs: null_pointer_is_valid sspstrong uwtable
define i32 @tvb_strsize(ptr noundef %0, i32 noundef %1) local_unnamed_addr #0 {
  %.not = icmp eq ptr %0, null
  br i1 %.not, label %7, label %3

3:                                                ; preds = %2
  %4 = getelementptr inbounds nuw i8, ptr %0, i64 16
  %5 = load i8, ptr %4, align 8, !range !9, !noundef !10
  %6 = trunc nuw i8 %5 to i1
  br i1 %6, label %8, label %7

7:                                                ; preds = %3, %2
  tail call void (ptr, ...) @proto_report_dissector_bug(ptr noundef nonnull @.str, ptr noundef nonnull @.str.1, i32 noundef 2622, ptr noundef nonnull @.str.5) #18
  unreachable

8:                                                ; preds = %3
  %9 = icmp sgt i32 %1, -1
  br i1 %9, label %10, label %23

10:                                               ; preds = %8
  %11 = getelementptr inbounds nuw i8, ptr %0, i64 40
  %12 = load i32, ptr %11, align 8
  %.not32.i.i = icmp ugt i32 %1, %12
  br i1 %.not32.i.i, label %13, label %39, !prof !11

13:                                               ; preds = %10
  %14 = getelementptr inbounds nuw i8, ptr %0, i64 48
  %15 = load i32, ptr %14, align 8
  %.not34.i.i = icmp ugt i32 %1, %15
  br i1 %.not34.i.i, label %16, label %53

16:                                               ; preds = %13
  %17 = getelementptr inbounds nuw i8, ptr %0, i64 20
  %18 = load i32, ptr %17, align 4
  %19 = and i32 %18, 1
  %.not35.i.i = icmp eq i32 %19, 0
  br i1 %.not35.i.i, label %20, label %53

20:                                               ; preds = %16
  %21 = getelementptr inbounds nuw i8, ptr %0, i64 44
  %22 = load i32, ptr %21, align 4
  %.not36.i.i = icmp ugt i32 %1, %22
  br label %.sink.split

23:                                               ; preds = %8
  %24 = sub i32 0, %1
  %25 = getelementptr inbounds nuw i8, ptr %0, i64 40
  %26 = load i32, ptr %25, align 8
  %.not.i.i = icmp ult i32 %26, %24
  br i1 %.not.i.i, label %29, label %27, !prof !11

27:                                               ; preds = %23
  %28 = add i32 %26, %1
  br label %39

29:                                               ; preds = %23
  %30 = getelementptr inbounds nuw i8, ptr %0, i64 48
  %31 = load i32, ptr %30, align 8
  %.not29.i.i = icmp ult i32 %31, %24
  br i1 %.not29.i.i, label %32, label %53

32:                                               ; preds = %29
  %33 = getelementptr inbounds nuw i8, ptr %0, i64 20
  %34 = load i32, ptr %33, align 4
  %35 = and i32 %34, 1
  %.not30.i.i = icmp eq i32 %35, 0
  br i1 %.not30.i.i, label %36, label %53

36:                                               ; preds = %32
  %37 = getelementptr inbounds nuw i8, ptr %0, i64 44
  %38 = load i32, ptr %37, align 4
  %.not31.i.i = icmp ult i32 %38, %24
  br label %.sink.split

39:                                               ; preds = %27, %10
  %40 = phi i32 [ %26, %27 ], [ %12, %10 ]
  %41 = phi i32 [ %28, %27 ], [ %1, %10 ]
  %42 = getelementptr inbounds nuw i8, ptr %0, i64 40
  %.not.i27.i = icmp ugt i32 %41, %40
  br i1 %.not.i27.i, label %43, label %check_offset_length.exit, !prof !11

43:                                               ; preds = %39
  %44 = getelementptr inbounds nuw i8, ptr %0, i64 48
  %45 = load i32, ptr %44, align 8
  %.not12.i.i = icmp ugt i32 %41, %45
  br i1 %.not12.i.i, label %46, label %53

46:                                               ; preds = %43
  %47 = getelementptr inbounds nuw i8, ptr %0, i64 20
  %48 = load i32, ptr %47, align 4
  %49 = and i32 %48, 1
  %.not13.i.i = icmp eq i32 %49, 0
  br i1 %.not13.i.i, label %50, label %53

50:                                               ; preds = %46
  %51 = getelementptr inbounds nuw i8, ptr %0, i64 44
  %52 = load i32, ptr %51, align 4
  %.not14.i.i = icmp ugt i32 %41, %52
  br label %.sink.split

.sink.split:                                      ; preds = %20, %36, %50
  %.not14.i.i.sink = phi i1 [ %.not14.i.i, %50 ], [ %.not31.i.i, %36 ], [ %.not36.i.i, %20 ]
  %..i29.i = select i1 %.not14.i.i.sink, i64 3, i64 2
  br label %53

53:                                               ; preds = %.sink.split, %43, %46, %32, %29, %16, %13
  %.0.i.ph = phi i64 [ 1, %13 ], [ 4, %16 ], [ 1, %29 ], [ 4, %32 ], [ 4, %46 ], [ 1, %43 ], [ %..i29.i, %.sink.split ]
  tail call void @except_throw(i64 noundef 1, i64 noundef %.0.i.ph, ptr noundef null) #18
  unreachable

check_offset_length.exit:                         ; preds = %39
  %54 = tail call i32 @tvb_find_uint8(ptr noundef nonnull %0, i32 noundef %41, i32 noundef -1, i8 noundef zeroext 0)
  %55 = icmp eq i32 %54, -1
  br i1 %55, label %56, label %73

56:                                               ; preds = %check_offset_length.exit
  %57 = load i32, ptr %42, align 8
  %58 = getelementptr inbounds nuw i8, ptr %0, i64 48
  %59 = load i32, ptr %58, align 8
  %60 = icmp ult i32 %57, %59
  br i1 %60, label %61, label %62

61:                                               ; preds = %56
  tail call void @except_throw(i64 noundef 1, i64 noundef 1, ptr noundef null) #18
  unreachable

62:                                               ; preds = %56
  %63 = getelementptr inbounds nuw i8, ptr %0, i64 20
  %64 = load i32, ptr %63, align 4
  %65 = and i32 %64, 1
  %.not13 = icmp eq i32 %65, 0
  br i1 %.not13, label %67, label %66

66:                                               ; preds = %62
  tail call void @except_throw(i64 noundef 1, i64 noundef 4, ptr noundef null) #18
  unreachable

67:                                               ; preds = %62
  %68 = getelementptr inbounds nuw i8, ptr %0, i64 44
  %69 = load i32, ptr %68, align 4
  %70 = icmp ult i32 %57, %69
  br i1 %70, label %71, label %72

71:                                               ; preds = %67
  tail call void @except_throw(i64 noundef 1, i64 noundef 2, ptr noundef null) #18
  unreachable

72:                                               ; preds = %67
  tail call void @except_throw(i64 noundef 1, i64 noundef 3, ptr noundef null) #18
  unreachable

73:                                               ; preds = %check_offset_length.exit
  %reass.sub = sub i32 %54, %41
  %74 = add i32 %reass.sub, 1
  ret i32 %74
}